target datalayout = "e-m:e-p270:32:32-p271:32:32-p272:64:64-i64:64-i128:128-f80:128-n8:16:32:64-S128"
target triple = "x86_64-pc-linux-gnu"

@hf_xot_length = internal global i32 0, align 4
@ett_xot = internal global i32 0, align 4
@proto_xot = internal global i32 0, align 4
@.str.73 = private unnamed_addr constant [30 x i8] c"X.25 over TCP - X.25 Sequence\00", align 1

; Function Attrs: null_pointer_is_valid sspstrong uwtable
define internal i32 @get_xot_pdu_len(ptr noundef %0, ptr noundef %1, i32 noundef %2, ptr noundef %3) #0 {
  %5 = alloca i32, align 4
  %6 = alloca ptr, align 8
  %7 = alloca ptr, align 8
  %8 = alloca i32, align 4
  %9 = alloca ptr, align 8
  %10 = alloca i16, align 2
  %11 = alloca i32, align 4
  %12 = alloca i32, align 4
  store ptr %0, ptr %6, align 8
  store ptr %1, ptr %7, align 8
  store i32 %2, ptr %8, align 4
  store ptr %3, ptr %9, align 8
  call void @llvm.lifetime.start.p0(i64 2, ptr %10) #3
  call void @llvm.lifetime.start.p0(i64 4, ptr %11) #3
  %13 = load ptr, ptr %7, align 8
  %14 = load i32, ptr %8, align 4
  %15 = call i32 @tvb_captured_length_remaining(ptr noundef %13, i32 noundef %14)
  store i32 %15, ptr %11, align 4
  %16 = load i32, ptr %11, align 4
  %17 = icmp slt i32 %16, 4
  br i1 %17, label %18, label %20

18:                                               ; preds = %4
  %19 = load i32, ptr %11, align 4
  store i32 %19, ptr %5, align 4
  store i32 1, ptr %12, align 4
  br label %28

20:                                               ; preds = %4
  %21 = load ptr, ptr %7, align 8
  %22 = load i32, ptr %8, align 4
  %23 = add i32 %22, 2
  %24 = call zeroext i16 @tvb_get_ntohs(ptr noundef %21, i32 noundef %23)
  store i16 %24, ptr %10, align 2
  %25 = load i16, ptr %10, align 2
  %26 = zext i16 %25 to i32
  %27 = add i32 4, %26
  store i32 %27, ptr %5, align 4
  store i32 1, ptr %12, align 4
  br label %28

28:                                               ; preds = %20, %18
  call void @llvm.lifetime.end.p0(i64 4, ptr %11) #3
  call void @llvm.lifetime.end.p0(i64 2, ptr %10) #3
  %29 = load i32, ptr %5, align 4
  ret i32 %29
}

; Function Attrs: null_pointer_is_valid sspstrong uwtable
define internal i32 @dissect_xot_mult(ptr noundef %0, ptr noundef %1, ptr noundef %2, ptr noundef %3) #0 {
  %5 = alloca ptr, align 8
  %6 = alloca ptr, align 8
  %7 = alloca ptr, align 8
  %8 = alloca ptr, align 8
  %9 = alloca i32, align 4
  %10 = alloca i32, align 4
  %11 = alloca ptr, align 8
  %12 = alloca i32, align 4
  %13 = alloca ptr, align 8
  %14 = alloca ptr, align 8
  %15 = alloca i32, align 4
  store ptr %0, ptr %5, align 8
  store ptr %1, ptr %6, align 8
  store ptr %2, ptr %7, align 8
  store ptr %3, ptr %8, align 8
  call void @llvm.lifetime.start.p0(i64 4, ptr %9) #3
  store i32 0, ptr %9, align 4
  call void @llvm.lifetime.start.p0(i64 4, ptr %10) #3
  %16 = load ptr, ptr %6, align 8
  %17 = load ptr, ptr %5, align 8
  %18 = load i32, ptr %9, align 4
  %19 = call i32 @get_xot_pdu_len_mult(ptr noundef %16, ptr noundef %17, i32 noundef %18, ptr noundef null)
  store i32 %19, ptr %10, align 4
  call void @llvm.lifetime.start.p0(i64 8, ptr %11) #3
  call void @llvm.lifetime.start.p0(i64 4, ptr %12) #3
  %20 = load i32, ptr %9, align 4
  %21 = load i32, ptr %10, align 4
  %22 = load ptr, ptr %5, align 8
  %23 = load i32, ptr %9, align 4
  %24 = call i32 @tvb_captured_length_remaining(ptr noundef %22, i32 noundef %23)
  %25 = icmp slt i32 %21, %24
  br i1 %25, label %26, label %28

26:                                               ; preds = %4
  %27 = load i32, ptr %10, align 4
  br label %32

28:                                               ; preds = %4
  %29 = load ptr, ptr %5, align 8
  %30 = load i32, ptr %9, align 4
  %31 = call i32 @tvb_captured_length_remaining(ptr noundef %29, i32 noundef %30)
  br label %32

32:                                               ; preds = %28, %26
  %33 = phi i32 [ %27, %26 ], [ %31, %28 ]
  %34 = add i32 %20, %33
  store i32 %34, ptr %12, align 4
  call void @llvm.lifetime.start.p0(i64 8, ptr %13) #3
  call void @llvm.lifetime.start.p0(i64 8, ptr %14) #3
  %35 = load ptr, ptr %7, align 8
  %36 = icmp ne ptr %35, null
  br i1 %36, label %37, label %56

37:                                               ; preds = %32
  %38 = load ptr, ptr %7, align 8
  %39 = load i32, ptr @proto_xot, align 4
  %40 = load ptr, ptr %5, align 8
  %41 = load i32, ptr %9, align 4
  %42 = load i32, ptr %12, align 4
  %43 = load i32, ptr %9, align 4
  %44 = sub i32 %42, %43
  %45 = call ptr (ptr, i32, ptr, i32, i32, ptr, ...) @proto_tree_add_protocol_format(ptr noundef %38, i32 noundef %39, ptr noundef %40, i32 noundef %41, i32 noundef %44, ptr noundef @.str.73)
  store ptr %45, ptr %13, align 8
  %46 = load ptr, ptr %13, align 8
  %47 = load i32, ptr @ett_xot, align 4
  %48 = call ptr @proto_item_add_subtree(ptr noundef %46, i32 noundef %47)
  store ptr %48, ptr %14, align 8
  %49 = load ptr, ptr %14, align 8
  %50 = load i32, ptr @hf_xot_length, align 4
  %51 = load ptr, ptr %5, align 8
  %52 = load i32, ptr %9, align 4
  %53 = load i32, ptr %12, align 4
  %54 = load i32, ptr %10, align 4
  %55 = call ptr @proto_tree_add_uint(ptr noundef %49, i32 noundef %50, ptr noundef %51, i32 noundef %52, i32 noundef %53, i32 noundef %54)
  br label %56

56:                                               ; preds = %37, %32
  br label %57

57:                                               ; preds = %62, %56
  %58 = load i32, ptr %9, align 4
  %59 = load i32, ptr %12, align 4
  %60 = sub i32 %59, 4
  %61 = icmp sle i32 %58, %60
  br i1 %61, label %62, label %79

62:                                               ; preds = %57
  call void @llvm.lifetime.start.p0(i64 4, ptr %15) #3
  %63 = load ptr, ptr %6, align 8
  %64 = load ptr, ptr %5, align 8
  %65 = load i32, ptr %9, align 4
  %66 = call i32 @get_xot_pdu_len(ptr noundef %63, ptr noundef %64, i32 noundef %65, ptr noundef null)
  store i32 %66, ptr %15, align 4
  %67 = load ptr, ptr %5, align 8
  %68 = load i32, ptr %9, align 4
  %69 = load i32, ptr %15, align 4
  %70 = call ptr @tvb_new_subset_length(ptr noundef %67, i32 noundef %68, i32 noundef %69)
  store ptr %70, ptr %11, align 8
  %71 = load ptr, ptr %11, align 8
  %72 = load ptr, ptr %6, align 8
  %73 = load ptr, ptr %7, align 8
  %74 = load ptr, ptr %8, align 8
  %75 = call i32 @dissect_xot_pdu(ptr noundef %71, ptr noundef %72, ptr noundef %73, ptr noundef %74)
  %76 = load i32, ptr %15, align 4
  %77 = load i32, ptr %9, align 4
  %78 = add i32 %77, %76
  store i32 %78, ptr %9, align 4
  call void @llvm.lifetime.end.p0(i64 4, ptr %15) #3
  br label %57, !llvm.loop !10

79:                                               ; preds = %57
  %80 = load ptr, ptr %5, align 8
  %81 = call i32 @tvb_captured_length(ptr noundef %80)
  call void @llvm.lifetime.end.p0(i64 8, ptr %14) #3
  call void @llvm.lifetime.end.p0(i64 8, ptr %13) #3
  call void @llvm.lifetime.end.p0(i64 4, ptr %12) #3
  call void @llvm.lifetime.end.p0(i64 8, ptr %11) #3
  call void @llvm.lifetime.end.p0(i64 4, ptr %10) #3
  call void @llvm.lifetime.end.p0(i64 4, ptr %9) #3
  ret i32 %81
}