; Function Attrs: null_pointer_is_valid sspstrong uwtable
define internal i32 @dissect_xot_mult(ptr noundef %0, ptr noundef %1, ptr noundef %2, ptr readnone captures(none) %3) #0 {
  %5 = tail call i32 @get_xot_pdu_len_mult(ptr noundef %1, ptr noundef %0, i32 noundef 0, ptr poison)
  %6 = tail call i32 @tvb_captured_length_remaining(ptr noundef %0, i32 noundef 0)
  %7 = icmp slt i32 %5, %6
  br i1 %7, label %10, label %8

8:                                                ; preds = %4
  %9 = tail call i32 @tvb_captured_length_remaining(ptr noundef %0, i32 noundef 0)
  br label %10

10:                                               ; preds = %4, %8
  %11 = phi i32 [ %9, %8 ], [ %5, %4 ]
  %.not = icmp eq ptr %2, null
  br i1 %.not, label %19, label %12

12:                                               ; preds = %10
  %13 = load i32, ptr @proto_xot, align 4
  %14 = tail call ptr (ptr, i32, ptr, i32, i32, ptr, ...) @proto_tree_add_protocol_format(ptr noundef nonnull %2, i32 noundef %13, ptr noundef %0, i32 noundef 0, i32 noundef %11, ptr noundef nonnull @.str.73)
  %15 = load i32, ptr @ett_xot, align 4
  %16 = tail call ptr @proto_item_add_subtree(ptr noundef %14, i32 noundef %15)
  %17 = load i32, ptr @hf_xot_length, align 4
  %18 = tail call ptr @proto_tree_add_uint(ptr noundef %16, i32 noundef %17, ptr noundef %0, i32 noundef 0, i32 noundef %11, i32 noundef %5)
  br label %19

19:                                               ; preds = %12, %10
  %20 = add i32 %11, -4
  %.not3839 = icmp slt i32 %20, 0
  br i1 %.not3839, label %._crit_edge, label %.lr.ph

.lr.ph:                                           ; preds = %19, %get_xot_pdu_len.exit
  %.040 = phi i32 [ %30, %get_xot_pdu_len.exit ], [ 0, %19 ]
  %21 = tail call i32 @tvb_captured_length_remaining(ptr noundef %0, i32 noundef %.040)
  %22 = icmp slt i32 %21, 4
  br i1 %22, label %get_xot_pdu_len.exit, label %23

23:                                               ; preds = %.lr.ph
  %24 = add i32 %.040, 2
  %25 = tail call zeroext i16 @tvb_get_ntohs(ptr noundef %0, i32 noundef %24)
  %26 = zext i16 %25 to i32
  %27 = add nuw nsw i32 %26, 4
  br label %get_xot_pdu_len.exit

get_xot_pdu_len.exit:                             ; preds = %.lr.ph, %23
  %.0.i = phi i32 [ %27, %23 ], [ %21, %.lr.ph ]
  %28 = tail call ptr @tvb_new_subset_length(ptr noundef %0, i32 noundef %.040, i32 noundef %.0.i)
  %29 = tail call i32 @dissect_xot_pdu(ptr noundef %28, ptr noundef %1, ptr noundef %2, ptr poison)
  %30 = add i32 %.0.i, %.040
  %.not38 = icmp sgt i32 %30, %20
  br i1 %.not38, label %._crit_edge, label %.lr.ph, !llvm.loop !10

._crit_edge:                                      ; preds = %get_xot_pdu_len.exit, %19
  %31 = tail call i32 @tvb_captured_length(ptr noundef %0)
  ret i32 %31
}